ccopy_reg
_reconstructor
p0
(c__main__
studentcourse
p1
c__builtin__
object
p2
Ntp3
Rp4
(dp5
S'course2'
p6
S'calculus'
p7
sS'course1'
p8
S'math10'
p9
sS'name'
p10
S'Leo'
p11
sS'year'
p12
S'sophomore'
p13
sb.ccopy_reg
_reconstructor
p0
(c__main__
studentcourse
p1
c__builtin__
object
p2
Ntp3
Rp4
(dp5
S'course2'
p6
S'calculus'
p7
sS'course1'
p8
S'ESL'
p9
sS'name'
p10
S'Nonni'
p11
sS'year'
p12
S'junior'
p13
sb.